target datalayout = "e-m:e-p270:32:32-p271:32:32-p272:64:64-i64:64-i128:128-f80:128-n8:16:32:64-S128"
target triple = "x86_64-unknown-linux-gnu"

%"class.std::__cxx11::basic_string" = type { %"struct.std::__cxx11::basic_string<char>::_Alloc_hider", i64, %union.anon }
%"struct.std::__cxx11::basic_string<char>::_Alloc_hider" = type { ptr }
%union.anon = type { i64, [8 x i8] }
%"class.Assimp::ZipFile" = type { %"class.Assimp::IOStream", %"class.std::__cxx11::basic_string", i64, i64, %"class.std::unique_ptr" }
%"class.Assimp::IOStream" = type { ptr }
%"class.std::unique_ptr" = type { %"struct.std::__uniq_ptr_data" }
%"struct.std::__uniq_ptr_data" = type { %"class.std::__uniq_ptr_impl" }
%"class.std::__uniq_ptr_impl" = type { %"class.std::tuple" }
%"class.std::tuple" = type { %"struct.std::_Tuple_impl" }
%"struct.std::_Tuple_impl" = type { %"struct.std::_Head_base.4" }
%"struct.std::_Head_base.4" = type { ptr }

; Function Attrs: mustprogress nounwind uwtable
define linkonce_odr noundef nonnull align 8 dereferenceable(8) ptr @_ZNSt10_Head_baseILm0EPhLb0EE7_M_headERKS1_(ptr noundef nonnull align 8 dereferenceable(8) %__b) #0 comdat align 2 {
entry:
  %__b.addr = alloca ptr, align 8
  store ptr %__b, ptr %__b.addr, align 8
  %0 = load ptr, ptr %__b.addr, align 8
  %_M_head_impl = getelementptr inbounds %"struct.std::_Head_base.4", ptr %0, i32 0, i32 0
  ret ptr %_M_head_impl
}

; Function Attrs: mustprogress nounwind uwtable
define linkonce_odr noundef nonnull align 8 dereferenceable(8) ptr @_ZNSt11_Tuple_implILm0EJPhSt14default_deleteIA_hEEE7_M_headERKS4_(ptr noundef nonnull align 8 dereferenceable(8) %__t) #0 comdat align 2 {
entry:
  %__t.addr = alloca ptr, align 8
  store ptr %__t, ptr %__t.addr, align 8
  %0 = load ptr, ptr %__t.addr, align 8
  %call = call noundef nonnull align 8 dereferenceable(8) ptr @_ZNSt10_Head_baseILm0EPhLb0EE7_M_headERKS1_(ptr noundef nonnull align 8 dereferenceable(8) %0) #9
  ret ptr %call
}

; Function Attrs: mustprogress nounwind uwtable
define linkonce_odr noundef nonnull align 8 dereferenceable(8) ptr @_ZSt12__get_helperILm0EPhJSt14default_deleteIA_hEEERKT0_RKSt11_Tuple_implIXT_EJS4_DpT1_EE(ptr noundef nonnull align 8 dereferenceable(8) %__t) #0 comdat {
entry:
  %__t.addr = alloca ptr, align 8
  store ptr %__t, ptr %__t.addr, align 8
  %0 = load ptr, ptr %__t.addr, align 8
  %call = call noundef nonnull align 8 dereferenceable(8) ptr @_ZNSt11_Tuple_implILm0EJPhSt14default_deleteIA_hEEE7_M_headERKS4_(ptr noundef nonnull align 8 dereferenceable(8) %0) #9
  ret ptr %call
}

; Function Attrs: mustprogress nounwind uwtable
define linkonce_odr noundef nonnull align 8 dereferenceable(8) ptr @_ZSt3getILm0EJPhSt14default_deleteIA_hEEERKNSt13tuple_elementIXT_ESt5tupleIJDpT0_EEE4typeERKS8_(ptr noundef nonnull align 8 dereferenceable(8) %__t) #0 comdat {
entry:
  %__t.addr = alloca ptr, align 8
  store ptr %__t, ptr %__t.addr, align 8
  %0 = load ptr, ptr %__t.addr, align 8
  %call = call noundef nonnull align 8 dereferenceable(8) ptr @_ZSt12__get_helperILm0EPhJSt14default_deleteIA_hEEERKT0_RKSt11_Tuple_implIXT_EJS4_DpT1_EE(ptr noundef nonnull align 8 dereferenceable(8) %0) #9
  ret ptr %call
}

; Function Attrs: mustprogress nounwind uwtable
define linkonce_odr noundef ptr @_ZNKSt15__uniq_ptr_implIhSt14default_deleteIA_hEE6_M_ptrEv(ptr noundef nonnull align 8 dereferenceable(8) %this) #0 comdat align 2 {
entry:
  %this.addr = alloca ptr, align 8
  store ptr %this, ptr %this.addr, align 8
  %this1 = load ptr, ptr %this.addr, align 8
  %_M_t = getelementptr inbounds %"class.std::__uniq_ptr_impl", ptr %this1, i32 0, i32 0
  %call = call noundef nonnull align 8 dereferenceable(8) ptr @_ZSt3getILm0EJPhSt14default_deleteIA_hEEERKNSt13tuple_elementIXT_ESt5tupleIJDpT0_EEE4typeERKS8_(ptr noundef nonnull align 8 dereferenceable(8) %_M_t) #9
  %0 = load ptr, ptr %call, align 8
  ret ptr %0
}

; Function Attrs: mustprogress nounwind uwtable
define linkonce_odr noundef ptr @_ZNKSt10unique_ptrIA_hSt14default_deleteIS0_EE3getEv(ptr noundef nonnull align 8 dereferenceable(8) %this) #0 comdat align 2 {
entry:
  %this.addr = alloca ptr, align 8
  store ptr %this, ptr %this.addr, align 8
  %this1 = load ptr, ptr %this.addr, align 8
  %_M_t = getelementptr inbounds %"class.std::unique_ptr", ptr %this1, i32 0, i32 0
  %call = call noundef ptr @_ZNKSt15__uniq_ptr_implIhSt14default_deleteIA_hEE6_M_ptrEv(ptr noundef nonnull align 8 dereferenceable(8) %_M_t) #9
  ret ptr %call
}

; Function Attrs: mustprogress nounwind uwtable
define hidden noundef i64 @_ZN6Assimp7ZipFile4ReadEPvmm(ptr noundef nonnull align 8 dereferenceable(64) %this, ptr noundef %pvBuffer, i64 noundef %pSize, i64 noundef %pCount) unnamed_addr #0 align 2 {
entry:
  %retval = alloca i64, align 8
  %this.addr = alloca ptr, align 8
  %pvBuffer.addr = alloca ptr, align 8
  %pSize.addr = alloca i64, align 8
  %pCount.addr = alloca i64, align 8
  %byteSize = alloca i64, align 8
  store ptr %this, ptr %this.addr, align 8
  store ptr %pvBuffer, ptr %pvBuffer.addr, align 8
  store i64 %pSize, ptr %pSize.addr, align 8
  store i64 %pCount, ptr %pCount.addr, align 8
  %this1 = load ptr, ptr %this.addr, align 8
  %0 = load i64, ptr %pSize.addr, align 8
  %1 = load i64, ptr %pCount.addr, align 8
  %mul = mul i64 %0, %1
  store i64 %mul, ptr %byteSize, align 8
  %2 = load i64, ptr %byteSize, align 8
  %m_SeekPtr = getelementptr inbounds %"class.Assimp::ZipFile", ptr %this1, i32 0, i32 3
  %3 = load i64, ptr %m_SeekPtr, align 8
  %add = add i64 %2, %3
  %m_Size = getelementptr inbounds %"class.Assimp::ZipFile", ptr %this1, i32 0, i32 2
  %4 = load i64, ptr %m_Size, align 8
  %cmp = icmp ugt i64 %add, %4
  br i1 %cmp, label %if.then, label %if.end7

if.then:                                          ; preds = %entry
  %m_Size2 = getelementptr inbounds %"class.Assimp::ZipFile", ptr %this1, i32 0, i32 2
  %5 = load i64, ptr %m_Size2, align 8
  %m_SeekPtr3 = getelementptr inbounds %"class.Assimp::ZipFile", ptr %this1, i32 0, i32 3
  %6 = load i64, ptr %m_SeekPtr3, align 8
  %sub = sub i64 %5, %6
  %7 = load i64, ptr %pSize.addr, align 8
  %div = udiv i64 %sub, %7
  store i64 %div, ptr %pCount.addr, align 8
  %8 = load i64, ptr %pSize.addr, align 8
  %9 = load i64, ptr %pCount.addr, align 8
  %mul4 = mul i64 %8, %9
  store i64 %mul4, ptr %byteSize, align 8
  %10 = load i64, ptr %byteSize, align 8
  %cmp5 = icmp eq i64 %10, 0
  br i1 %cmp5, label %if.then6, label %if.end

if.then6:                                         ; preds = %if.then
  store i64 0, ptr %retval, align 8
  br label %return

if.end:                                           ; preds = %if.then
  br label %if.end7

if.end7:                                          ; preds = %if.end, %entry
  %11 = load ptr, ptr %pvBuffer.addr, align 8
  %m_Buffer = getelementptr inbounds %"class.Assimp::ZipFile", ptr %this1, i32 0, i32 4
  %call = call noundef ptr @_ZNKSt10unique_ptrIA_hSt14default_deleteIS0_EE3getEv(ptr noundef nonnull align 8 dereferenceable(8) %m_Buffer) #9
  %m_SeekPtr8 = getelementptr inbounds %"class.Assimp::ZipFile", ptr %this1, i32 0, i32 3
  %12 = load i64, ptr %m_SeekPtr8, align 8
  %add.ptr = getelementptr inbounds i8, ptr %call, i64 %12
  %13 = load i64, ptr %byteSize, align 8
  call void @llvm.memcpy.p0.p0.i64(ptr align 1 %11, ptr align 1 %add.ptr, i64 %13, i1 false)
  %14 = load i64, ptr %byteSize, align 8
  %m_SeekPtr9 = getelementptr inbounds %"class.Assimp::ZipFile", ptr %this1, i32 0, i32 3
  %15 = load i64, ptr %m_SeekPtr9, align 8
  %add10 = add i64 %15, %14
  store i64 %add10, ptr %m_SeekPtr9, align 8
  %16 = load i64, ptr %pCount.addr, align 8
  store i64 %16, ptr %retval, align 8
  br label %return

return:                                           ; preds = %if.end7, %if.then6
  %17 = load i64, ptr %retval, align 8
  ret i64 %17
}