; Function Attrs: mustprogress nofree norecurse nosync nounwind willreturn memory(readwrite, inaccessiblemem: none) uwtable
define hidden noundef i64 @_ZN6Assimp7ZipFile4ReadEPvmm(ptr nocapture noundef nonnull align 8 dereferenceable(64) %this, ptr nocapture noundef writeonly %pvBuffer, i64 noundef %pSize, i64 noundef %pCount) unnamed_addr #13 align 2 {
entry:
  %mul = mul i64 %pCount, %pSize
  %m_SeekPtr = getelementptr inbounds i8, ptr %this, i64 48
  %0 = load i64, ptr %m_SeekPtr, align 8
  %add = add i64 %0, %mul
  %m_Size = getelementptr inbounds i8, ptr %this, i64 40
  %1 = load i64, ptr %m_Size, align 8
  %cmp = icmp ugt i64 %add, %1
  br i1 %cmp, label %if.then, label %if.end7

if.then:                                          ; preds = %entry
  %sub = sub i64 %1, %0
  %div = udiv i64 %sub, %pSize
  %mul4 = mul i64 %div, %pSize
  %cmp5 = icmp eq i64 %mul4, 0
  br i1 %cmp5, label %return, label %if.end7

if.end7:                                          ; preds = %if.then, %entry
  %pCount.addr.0 = phi i64 [ %div, %if.then ], [ %pCount, %entry ]
  %byteSize.0 = phi i64 [ %mul4, %if.then ], [ %mul, %entry ]
  %m_Buffer = getelementptr inbounds i8, ptr %this, i64 56
  %2 = load ptr, ptr %m_Buffer, align 8
  %add.ptr = getelementptr inbounds i8, ptr %2, i64 %0
  tail call void @llvm.memcpy.p0.p0.i64(ptr align 1 %pvBuffer, ptr align 1 %add.ptr, i64 %byteSize.0, i1 false)
  %3 = load i64, ptr %m_SeekPtr, align 8
  %add10 = add i64 %3, %byteSize.0
  store i64 %add10, ptr %m_SeekPtr, align 8
  br label %return

return:                                           ; preds = %if.then, %if.end7
  %retval.0 = phi i64 [ %pCount.addr.0, %if.end7 ], [ 0, %if.then ]
  ret i64 %retval.0
}